target datalayout = "e-m:e-p270:32:32-p271:32:32-p272:64:64-i64:64-i128:128-f80:128-n8:16:32:64-S128"
target triple = "x86_64-unknown-linux-gnu"

%"class.icu_75::Locale" = type <{ %"class.icu_75::UObject", [12 x i8], [6 x i8], [4 x i8], [2 x i8], i32, [4 x i8], ptr, [157 x i8], [3 x i8], ptr, i8, [7 x i8] }>
%"class.icu_75::UObject" = type { ptr }

@_ZTVN6icu_756LocaleE = unnamed_addr constant { [5 x ptr] } { [5 x ptr] [ptr null, ptr @_ZTIN6icu_756LocaleE, ptr @_ZN6icu_756LocaleD1Ev, ptr @_ZN6icu_756LocaleD0Ev, ptr @_ZNK6icu_756Locale17getDynamicClassIDEv] }, align 8

; Function Attrs: mustprogress nounwind uwtable
define void @_ZN6icu_756LocaleD2Ev(ptr noundef nonnull align 8 dereferenceable(217) %this) unnamed_addr #0 align 2 personality ptr @__gxx_personality_v0 {
entry:
  %this.addr = alloca ptr, align 8
  store ptr %this, ptr %this.addr, align 8
  %this1 = load ptr, ptr %this.addr, align 8
  store ptr getelementptr inbounds ({ [5 x ptr] }, ptr @_ZTVN6icu_756LocaleE, i32 0, i32 0, i32 2), ptr %this1, align 8
  %baseName = getelementptr inbounds %"class.icu_75::Locale", ptr %this1, i32 0, i32 10
  %0 = load ptr, ptr %baseName, align 8
  %fullName = getelementptr inbounds %"class.icu_75::Locale", ptr %this1, i32 0, i32 7
  %1 = load ptr, ptr %fullName, align 8
  %cmp = icmp ne ptr %0, %1
  br i1 %cmp, label %land.lhs.true, label %if.end

land.lhs.true:                                    ; preds = %entry
  %baseName2 = getelementptr inbounds %"class.icu_75::Locale", ptr %this1, i32 0, i32 10
  %2 = load ptr, ptr %baseName2, align 8
  %fullNameBuffer = getelementptr inbounds %"class.icu_75::Locale", ptr %this1, i32 0, i32 8
  %arraydecay = getelementptr inbounds [157 x i8], ptr %fullNameBuffer, i64 0, i64 0
  %cmp3 = icmp ne ptr %2, %arraydecay
  br i1 %cmp3, label %if.then, label %if.end

if.then:                                          ; preds = %land.lhs.true
  %baseName4 = getelementptr inbounds %"class.icu_75::Locale", ptr %this1, i32 0, i32 10
  %3 = load ptr, ptr %baseName4, align 8
  invoke void @uprv_free_75(ptr noundef %3)
          to label %invoke.cont unwind label %terminate.lpad

invoke.cont:                                      ; preds = %if.then
  br label %if.end

if.end:                                           ; preds = %invoke.cont, %land.lhs.true, %entry
  %baseName5 = getelementptr inbounds %"class.icu_75::Locale", ptr %this1, i32 0, i32 10
  store ptr null, ptr %baseName5, align 8
  %fullName6 = getelementptr inbounds %"class.icu_75::Locale", ptr %this1, i32 0, i32 7
  %4 = load ptr, ptr %fullName6, align 8
  %fullNameBuffer7 = getelementptr inbounds %"class.icu_75::Locale", ptr %this1, i32 0, i32 8
  %arraydecay8 = getelementptr inbounds [157 x i8], ptr %fullNameBuffer7, i64 0, i64 0
  %cmp9 = icmp ne ptr %4, %arraydecay8
  br i1 %cmp9, label %if.then10, label %if.end14

if.then10:                                        ; preds = %if.end
  %fullName11 = getelementptr inbounds %"class.icu_75::Locale", ptr %this1, i32 0, i32 7
  %5 = load ptr, ptr %fullName11, align 8
  invoke void @uprv_free_75(ptr noundef %5)
          to label %invoke.cont12 unwind label %terminate.lpad

invoke.cont12:                                    ; preds = %if.then10
  %fullName13 = getelementptr inbounds %"class.icu_75::Locale", ptr %this1, i32 0, i32 7
  store ptr null, ptr %fullName13, align 8
  br label %if.end14

if.end14:                                         ; preds = %invoke.cont12, %if.end
  call void @_ZN6icu_757UObjectD2Ev(ptr noundef nonnull align 8 dereferenceable(8) %this1) #10
  ret void

terminate.lpad:                                   ; preds = %if.then10, %if.then
  %6 = landingpad { ptr, i32 }
          catch ptr null
  %7 = extractvalue { ptr, i32 } %6, 0
  call void @__clang_call_terminate(ptr %7) #12
  unreachable
}