; Function Attrs: mustprogress nounwind uwtable
define void @_ZN6icu_756LocaleD2Ev(ptr noundef nonnull align 8 dereferenceable(217) %this) unnamed_addr #0 align 2 personality ptr @__gxx_personality_v0 {
entry:
  store ptr getelementptr inbounds ({ [5 x ptr] }, ptr @_ZTVN6icu_756LocaleE, i64 0, i32 0, i64 2), ptr %this, align 8
  %baseName = getelementptr inbounds i8, ptr %this, i64 208
  %0 = load ptr, ptr %baseName, align 8
  %fullName = getelementptr inbounds i8, ptr %this, i64 40
  %1 = load ptr, ptr %fullName, align 8
  %cmp.not = icmp eq ptr %0, %1
  %fullNameBuffer = getelementptr inbounds i8, ptr %this, i64 48
  %cmp3.not = icmp eq ptr %0, %fullNameBuffer
  %or.cond = select i1 %cmp.not, i1 true, i1 %cmp3.not
  br i1 %or.cond, label %if.end, label %if.then

if.then:                                          ; preds = %entry
  invoke void @uprv_free_75(ptr noundef %0)
          to label %if.then.if.end_crit_edge unwind label %terminate.lpad

if.then.if.end_crit_edge:                         ; preds = %if.then
  %.pre = load ptr, ptr %fullName, align 8
  br label %if.end

if.end:                                           ; preds = %if.then.if.end_crit_edge, %entry
  %2 = phi ptr [ %.pre, %if.then.if.end_crit_edge ], [ %1, %entry ]
  store ptr null, ptr %baseName, align 8
  %cmp9.not = icmp eq ptr %2, %fullNameBuffer
  br i1 %cmp9.not, label %if.end14, label %if.then10

if.then10:                                        ; preds = %if.end
  invoke void @uprv_free_75(ptr noundef %2)
          to label %invoke.cont12 unwind label %terminate.lpad

invoke.cont12:                                    ; preds = %if.then10
  store ptr null, ptr %fullName, align 8
  br label %if.end14

if.end14:                                         ; preds = %invoke.cont12, %if.end
  tail call void @_ZN6icu_757UObjectD2Ev(ptr noundef nonnull align 8 dereferenceable(8) %this) #20
  ret void

terminate.lpad:                                   ; preds = %if.then10, %if.then
  %3 = landingpad { ptr, i32 }
          catch ptr null
  %4 = extractvalue { ptr, i32 } %3, 0
  tail call void @__clang_call_terminate(ptr %4) #22
  unreachable
}